target datalayout = "e-m:e-p270:32:32-p271:32:32-p272:64:64-i64:64-i128:128-f80:128-n8:16:32:64-S128"
target triple = "x86_64-pc-linux-gnu"

%struct.php_ini_builder = type { ptr, i64 }

; Function Attrs: inlinehint nounwind uwtable
define internal void @php_ini_builder_realloc(ptr noundef %0, i64 noundef %1) #1 {
  %3 = alloca ptr, align 8
  %4 = alloca i64, align 8
  store ptr %0, ptr %3, align 8, !tbaa !4
  store i64 %1, ptr %4, align 8, !tbaa !11
  %5 = load ptr, ptr %3, align 8, !tbaa !4
  %6 = getelementptr inbounds nuw %struct.php_ini_builder, ptr %5, i32 0, i32 0
  %7 = load ptr, ptr %6, align 8, !tbaa !15
  %8 = load ptr, ptr %3, align 8, !tbaa !4
  %9 = getelementptr inbounds nuw %struct.php_ini_builder, ptr %8, i32 0, i32 1
  %10 = load i64, ptr %9, align 8, !tbaa !13
  %11 = load i64, ptr %4, align 8, !tbaa !11
  %12 = add i64 %10, %11
  %13 = add i64 %12, 1
  %14 = call ptr @realloc(ptr noundef %7, i64 noundef %13) #7
  %15 = load ptr, ptr %3, align 8, !tbaa !4
  %16 = getelementptr inbounds nuw %struct.php_ini_builder, ptr %15, i32 0, i32 0
  store ptr %14, ptr %16, align 8, !tbaa !15
  ret void
}

; Function Attrs: nounwind uwtable
define dso_local void @php_ini_builder_unquoted(ptr noundef %0, ptr noundef %1, i64 noundef %2, ptr noundef %3, i64 noundef %4) #0 {
  %6 = alloca ptr, align 8
  %7 = alloca ptr, align 8
  %8 = alloca i64, align 8
  %9 = alloca ptr, align 8
  %10 = alloca i64, align 8
  store ptr %0, ptr %6, align 8, !tbaa !4
  store ptr %1, ptr %7, align 8, !tbaa !9
  store i64 %2, ptr %8, align 8, !tbaa !11
  store ptr %3, ptr %9, align 8, !tbaa !9
  store i64 %4, ptr %10, align 8, !tbaa !11
  %11 = load ptr, ptr %6, align 8, !tbaa !4
  %12 = load i64, ptr %8, align 8, !tbaa !11
  %13 = add i64 %12, 1
  %14 = load i64, ptr %10, align 8, !tbaa !11
  %15 = add i64 %13, %14
  %16 = add i64 %15, 1
  call void @php_ini_builder_realloc(ptr noundef %11, i64 noundef %16)
  %17 = load ptr, ptr %6, align 8, !tbaa !4
  %18 = getelementptr inbounds nuw %struct.php_ini_builder, ptr %17, i32 0, i32 0
  %19 = load ptr, ptr %18, align 8, !tbaa !15
  %20 = load ptr, ptr %6, align 8, !tbaa !4
  %21 = getelementptr inbounds nuw %struct.php_ini_builder, ptr %20, i32 0, i32 1
  %22 = load i64, ptr %21, align 8, !tbaa !13
  %23 = getelementptr inbounds nuw i8, ptr %19, i64 %22
  %24 = load ptr, ptr %7, align 8, !tbaa !9
  %25 = load i64, ptr %8, align 8, !tbaa !11
  call void @llvm.memcpy.p0.p0.i64(ptr align 1 %23, ptr align 1 %24, i64 %25, i1 false)
  %26 = load i64, ptr %8, align 8, !tbaa !11
  %27 = load ptr, ptr %6, align 8, !tbaa !4
  %28 = getelementptr inbounds nuw %struct.php_ini_builder, ptr %27, i32 0, i32 1
  %29 = load i64, ptr %28, align 8, !tbaa !13
  %30 = add i64 %29, %26
  store i64 %30, ptr %28, align 8, !tbaa !13
  %31 = load ptr, ptr %6, align 8, !tbaa !4
  %32 = getelementptr inbounds nuw %struct.php_ini_builder, ptr %31, i32 0, i32 0
  %33 = load ptr, ptr %32, align 8, !tbaa !15
  %34 = load ptr, ptr %6, align 8, !tbaa !4
  %35 = getelementptr inbounds nuw %struct.php_ini_builder, ptr %34, i32 0, i32 1
  %36 = load i64, ptr %35, align 8, !tbaa !13
  %37 = add i64 %36, 1
  store i64 %37, ptr %35, align 8, !tbaa !13
  %38 = getelementptr inbounds nuw i8, ptr %33, i64 %36
  store i8 61, ptr %38, align 1, !tbaa !16
  %39 = load ptr, ptr %6, align 8, !tbaa !4
  %40 = getelementptr inbounds nuw %struct.php_ini_builder, ptr %39, i32 0, i32 0
  %41 = load ptr, ptr %40, align 8, !tbaa !15
  %42 = load ptr, ptr %6, align 8, !tbaa !4
  %43 = getelementptr inbounds nuw %struct.php_ini_builder, ptr %42, i32 0, i32 1
  %44 = load i64, ptr %43, align 8, !tbaa !13
  %45 = getelementptr inbounds nuw i8, ptr %41, i64 %44
  %46 = load ptr, ptr %9, align 8, !tbaa !9
  %47 = load i64, ptr %10, align 8, !tbaa !11
  call void @llvm.memcpy.p0.p0.i64(ptr align 1 %45, ptr align 1 %46, i64 %47, i1 false)
  %48 = load i64, ptr %10, align 8, !tbaa !11
  %49 = load ptr, ptr %6, align 8, !tbaa !4
  %50 = getelementptr inbounds nuw %struct.php_ini_builder, ptr %49, i32 0, i32 1
  %51 = load i64, ptr %50, align 8, !tbaa !13
  %52 = add i64 %51, %48
  store i64 %52, ptr %50, align 8, !tbaa !13
  %53 = load ptr, ptr %6, align 8, !tbaa !4
  %54 = getelementptr inbounds nuw %struct.php_ini_builder, ptr %53, i32 0, i32 0
  %55 = load ptr, ptr %54, align 8, !tbaa !15
  %56 = load ptr, ptr %6, align 8, !tbaa !4
  %57 = getelementptr inbounds nuw %struct.php_ini_builder, ptr %56, i32 0, i32 1
  %58 = load i64, ptr %57, align 8, !tbaa !13
  %59 = add i64 %58, 1
  store i64 %59, ptr %57, align 8, !tbaa !13
  %60 = getelementptr inbounds nuw i8, ptr %55, i64 %58
  store i8 10, ptr %60, align 1, !tbaa !16
  ret void
}