; Function Attrs: mustprogress nounwind willreturn uwtable
define dso_local void @php_ini_builder_unquoted(ptr noundef captures(none) %0, ptr noundef readonly captures(none) %1, i64 noundef %2, ptr noundef readonly captures(none) %3, i64 noundef %4) local_unnamed_addr #0 {
  %6 = load ptr, ptr %0, align 8, !tbaa !4
  %7 = getelementptr inbounds nuw i8, ptr %0, i64 8
  %8 = load i64, ptr %7, align 8, !tbaa !11
  %9 = add i64 %2, 3
  %10 = add i64 %9, %4
  %11 = add i64 %10, %8
  %12 = tail call ptr @realloc(ptr noundef %6, i64 noundef %11) #5
  store ptr %12, ptr %0, align 8, !tbaa !4
  %13 = load i64, ptr %7, align 8, !tbaa !11
  %14 = getelementptr inbounds nuw i8, ptr %12, i64 %13
  tail call void @llvm.memcpy.p0.p0.i64(ptr align 1 %14, ptr align 1 %1, i64 %2, i1 false)
  %15 = add i64 %13, %2
  %16 = add i64 %15, 1
  store i64 %16, ptr %7, align 8, !tbaa !11
  %17 = getelementptr inbounds nuw i8, ptr %12, i64 %15
  store i8 61, ptr %17, align 1, !tbaa !12
  %18 = getelementptr inbounds nuw i8, ptr %12, i64 %16
  tail call void @llvm.memcpy.p0.p0.i64(ptr align 1 %18, ptr align 1 %3, i64 %4, i1 false)
  %19 = add i64 %16, %4
  %20 = add i64 %19, 1
  store i64 %20, ptr %7, align 8, !tbaa !11
  %21 = getelementptr inbounds nuw i8, ptr %12, i64 %19
  store i8 10, ptr %21, align 1, !tbaa !12
  ret void
}